; Function Attrs: mustprogress nounwind uwtable
define internal fastcc void @_ZNSt6vectorIN12_GLOBAL__N_17Pyramid6OctaveESaIS2_EED2Ev(ptr noundef nonnull readonly align 8 captures(none) dereferenceable(24) %0) unnamed_addr #12 align 2 personality ptr @__gxx_personality_v0 {
  %2 = load ptr, ptr %0, align 8, !tbaa !108
  %3 = getelementptr inbounds nuw i8, ptr %0, i64 8
  %4 = load ptr, ptr %3, align 8, !tbaa !192
  %.not4.i.i.i = icmp eq ptr %2, %4
  br i1 %.not4.i.i.i, label %_ZSt8_DestroyIPN12_GLOBAL__N_17Pyramid6OctaveES2_EvT_S4_RSaIT0_E.exit, label %.lr.ph.i.i.i

.lr.ph.i.i.i:                                     ; preds = %1, %.lr.ph.i.i.i
  %.05.i.i.i = phi ptr [ %7, %.lr.ph.i.i.i ], [ %2, %1 ]
  %5 = load ptr, ptr %.05.i.i.i, align 8, !tbaa !14
  %6 = load ptr, ptr %5, align 8
  tail call void %6(ptr noundef nonnull align 8 dereferenceable(32) %.05.i.i.i) #26
  %7 = getelementptr inbounds nuw i8, ptr %.05.i.i.i, i64 32
  %.not.i.i.i = icmp eq ptr %7, %4
  br i1 %.not.i.i.i, label %_ZSt8_DestroyIPN12_GLOBAL__N_17Pyramid6OctaveES2_EvT_S4_RSaIT0_E.exitthread-pre-split, label %.lr.ph.i.i.i, !llvm.loop !193

_ZSt8_DestroyIPN12_GLOBAL__N_17Pyramid6OctaveES2_EvT_S4_RSaIT0_E.exitthread-pre-split: ; preds = %.lr.ph.i.i.i
  %.val.pr = load ptr, ptr %0, align 8, !tbaa !108
  br label %_ZSt8_DestroyIPN12_GLOBAL__N_17Pyramid6OctaveES2_EvT_S4_RSaIT0_E.exit

_ZSt8_DestroyIPN12_GLOBAL__N_17Pyramid6OctaveES2_EvT_S4_RSaIT0_E.exit: ; preds = %_ZSt8_DestroyIPN12_GLOBAL__N_17Pyramid6OctaveES2_EvT_S4_RSaIT0_E.exitthread-pre-split, %1
  %.val = phi ptr [ %.val.pr, %_ZSt8_DestroyIPN12_GLOBAL__N_17Pyramid6OctaveES2_EvT_S4_RSaIT0_E.exitthread-pre-split ], [ %2, %1 ]
  %.not.i.i = icmp eq ptr %.val, null
  br i1 %.not.i.i, label %_ZNSt12_Vector_baseIN12_GLOBAL__N_17Pyramid6OctaveESaIS2_EED2Ev.exit, label %8

8:                                                ; preds = %_ZSt8_DestroyIPN12_GLOBAL__N_17Pyramid6OctaveES2_EvT_S4_RSaIT0_E.exit
  tail call void @_ZdlPv(ptr noundef nonnull %.val) #25
  br label %_ZNSt12_Vector_baseIN12_GLOBAL__N_17Pyramid6OctaveESaIS2_EED2Ev.exit

_ZNSt12_Vector_baseIN12_GLOBAL__N_17Pyramid6OctaveESaIS2_EED2Ev.exit: ; preds = %_ZSt8_DestroyIPN12_GLOBAL__N_17Pyramid6OctaveES2_EvT_S4_RSaIT0_E.exit, %8
  ret void
}